target datalayout = "e-m:e-p270:32:32-p271:32:32-p272:64:64-i64:64-i128:128-f80:128-n8:16:32:64-S128"
target triple = "x86_64-pc-linux-gnu"

%struct.callerid_conn_t = type { i32, i32, %struct.in6_addr, %struct.in6_addr, i32 }
%struct.in6_addr = type { %union.anon }
%union.anon = type { [4 x i32] }

@.str.14 = private unnamed_addr constant [30 x i8] c"_match_conn matched inode %lu\00", align 1

; Function Attrs: nounwind uwtable
define internal i32 @_match_conn(ptr noundef %0, ptr noundef %1, ptr noundef %2, i64 noundef %3, i32 noundef %4) #0 {
  %6 = alloca i32, align 4
  %7 = alloca ptr, align 8
  %8 = alloca ptr, align 8
  %9 = alloca ptr, align 8
  %10 = alloca i64, align 8
  %11 = alloca i32, align 4
  %12 = alloca i32, align 4
  %13 = alloca i32, align 4
  store ptr %0, ptr %7, align 8
  store ptr %1, ptr %8, align 8
  store ptr %2, ptr %9, align 8
  store i64 %3, ptr %10, align 8
  store i32 %4, ptr %11, align 4
  call void @llvm.lifetime.start.p0(i64 4, ptr %12) #10
  %14 = load i32, ptr %11, align 4
  %15 = icmp eq i32 %14, 2
  %16 = select i1 %15, i32 4, i32 16
  store i32 %16, ptr %12, align 4
  %17 = load ptr, ptr %7, align 8
  %18 = getelementptr inbounds nuw %struct.callerid_conn_t, ptr %17, i32 0, i32 0
  %19 = load i32, ptr %18, align 4
  %20 = load ptr, ptr %9, align 8
  %21 = getelementptr inbounds nuw %struct.callerid_conn_t, ptr %20, i32 0, i32 0
  %22 = load i32, ptr %21, align 4
  %23 = icmp ne i32 %19, %22
  br i1 %23, label %50, label %24

24:                                               ; preds = %5
  %25 = load ptr, ptr %7, align 8
  %26 = getelementptr inbounds nuw %struct.callerid_conn_t, ptr %25, i32 0, i32 1
  %27 = load i32, ptr %26, align 4
  %28 = load ptr, ptr %9, align 8
  %29 = getelementptr inbounds nuw %struct.callerid_conn_t, ptr %28, i32 0, i32 1
  %30 = load i32, ptr %29, align 4
  %31 = icmp ne i32 %27, %30
  br i1 %31, label %50, label %32

32:                                               ; preds = %24
  %33 = load ptr, ptr %7, align 8
  %34 = getelementptr inbounds nuw %struct.callerid_conn_t, ptr %33, i32 0, i32 2
  %35 = load ptr, ptr %9, align 8
  %36 = getelementptr inbounds nuw %struct.callerid_conn_t, ptr %35, i32 0, i32 2
  %37 = load i32, ptr %12, align 4
  %38 = sext i32 %37 to i64
  %39 = call i32 @memcmp(ptr noundef %34, ptr noundef %36, i64 noundef %38) #11
  %40 = icmp ne i32 %39, 0
  br i1 %40, label %50, label %41

41:                                               ; preds = %32
  %42 = load ptr, ptr %7, align 8
  %43 = getelementptr inbounds nuw %struct.callerid_conn_t, ptr %42, i32 0, i32 3
  %44 = load ptr, ptr %9, align 8
  %45 = getelementptr inbounds nuw %struct.callerid_conn_t, ptr %44, i32 0, i32 3
  %46 = load i32, ptr %12, align 4
  %47 = sext i32 %46 to i64
  %48 = call i32 @memcmp(ptr noundef %43, ptr noundef %45, i64 noundef %47) #11
  %49 = icmp ne i32 %48, 0
  br i1 %49, label %50, label %51

50:                                               ; preds = %41, %32, %24, %5
  store i32 -1, ptr %6, align 4
  store i32 1, ptr %13, align 4
  br label %65

51:                                               ; preds = %41
  br label %52

52:                                               ; preds = %51
  br label %53

53:                                               ; preds = %52
  %54 = call i32 @get_log_level()
  %55 = icmp sge i32 %54, 7
  br i1 %55, label %56, label %58

56:                                               ; preds = %53
  %57 = load i64, ptr %10, align 8
  call void (i32, ptr, ...) @log_var(i32 noundef 7, ptr noundef @.str.14, i64 noundef %57)
  br label %58

58:                                               ; preds = %56, %53
  br label %59

59:                                               ; preds = %58
  br label %60

60:                                               ; preds = %59
  br label %61

61:                                               ; preds = %60
  br label %62

62:                                               ; preds = %61
  %63 = load i64, ptr %10, align 8
  %64 = load ptr, ptr %8, align 8
  store i64 %63, ptr %64, align 8
  store i32 0, ptr %6, align 4
  store i32 1, ptr %13, align 4
  br label %65

65:                                               ; preds = %62, %50
  call void @llvm.lifetime.end.p0(i64 4, ptr %12) #10
  %66 = load i32, ptr %6, align 4
  ret i32 %66
}