; Function Attrs: nounwind uwtable
define internal range(i32 -1, 1) i32 @_match_conn(ptr noundef readonly captures(none) %0, ptr noundef writeonly captures(none) %1, ptr noundef readonly captures(none) %2, i64 noundef %3, i32 noundef %4) #0 {
  %6 = icmp eq i32 %4, 2
  %7 = select i1 %6, i64 4, i64 16
  %8 = load i32, ptr %0, align 4
  %9 = load i32, ptr %2, align 4
  %.not = icmp eq i32 %8, %9
  br i1 %.not, label %10, label %26

10:                                               ; preds = %5
  %11 = getelementptr inbounds nuw i8, ptr %0, i64 4
  %12 = load i32, ptr %11, align 4
  %13 = getelementptr inbounds nuw i8, ptr %2, i64 4
  %14 = load i32, ptr %13, align 4
  %.not14 = icmp eq i32 %12, %14
  br i1 %.not14, label %15, label %26

15:                                               ; preds = %10
  %16 = getelementptr inbounds nuw i8, ptr %0, i64 8
  %17 = getelementptr inbounds nuw i8, ptr %2, i64 8
  %bcmp = tail call i32 @bcmp(ptr noundef nonnull dereferenceable(4) %16, ptr noundef nonnull dereferenceable(4) %17, i64 %7)
  %.not15 = icmp eq i32 %bcmp, 0
  br i1 %.not15, label %18, label %26

18:                                               ; preds = %15
  %19 = getelementptr inbounds nuw i8, ptr %0, i64 24
  %20 = getelementptr inbounds nuw i8, ptr %2, i64 24
  %bcmp16 = tail call i32 @bcmp(ptr noundef nonnull dereferenceable(4) %19, ptr noundef nonnull dereferenceable(4) %20, i64 %7)
  %.not17 = icmp eq i32 %bcmp16, 0
  br i1 %.not17, label %21, label %26

21:                                               ; preds = %18
  %22 = tail call i32 @get_log_level() #11
  %23 = icmp sgt i32 %22, 6
  br i1 %23, label %24, label %25

24:                                               ; preds = %21
  tail call void (i32, ptr, ...) @log_var(i32 noundef 7, ptr noundef nonnull @.str.14, i64 noundef %3) #11
  br label %25

25:                                               ; preds = %24, %21
  store i64 %3, ptr %1, align 8
  br label %26

26:                                               ; preds = %5, %10, %15, %18, %25
  %.0 = phi i32 [ 0, %25 ], [ -1, %18 ], [ -1, %15 ], [ -1, %10 ], [ -1, %5 ]
  ret i32 %.0
}